Certificate:
    Data:
        Version: 3 (0x2)
        Serial Number:
            ea:bd:31:7f:24:96:12:48:ba:56:cc:43:06:73:93:24
        Signature Algorithm: sha256WithRSAEncryption
        Issuer: CN=BalaSys D(HE)ate CA
        Validity
            Not Before: Nov 24 13:50:28 2021 GMT
            Not After : Feb 27 13:50:28 2024 GMT
        Subject: CN=dheat.victim
        Subject Public Key Info:
            Public Key Algorithm: rsaEncryption
                RSA Public-Key: (2048 bit)
                Modulus:
                    00:aa:72:b7:4e:a2:5c:81:31:51:70:9e:ba:b9:92:
                    d1:67:1b:07:f7:2e:82:7b:5a:7f:92:36:81:b6:d2:
                    f1:6a:bb:35:6b:59:a7:ed:fb:06:1b:b1:aa:72:b6:
                    04:dc:11:21:9a:ab:84:04:b0:ac:a1:7f:c5:31:a1:
                    8b:79:63:94:d0:b9:02:b4:dd:59:ea:6b:32:15:4f:
                    50:3b:2a:87:73:6d:1d:5e:10:24:fb:da:bc:1b:c3:
                    7c:72:d9:e8:8d:fe:ef:99:93:68:72:d0:8c:8e:a6:
                    b2:02:78:75:59:24:9e:e6:7e:70:d0:18:60:01:9c:
                    99:f5:61:a6:3a:ea:73:69:31:b2:63:fd:a0:9e:5e:
                    95:4a:bc:2a:6f:eb:18:a8:1d:3c:ce:5c:c5:c0:7e:
                    c9:d5:bf:b5:06:91:52:4f:2c:80:9a:8d:2b:d5:4b:
                    af:89:7f:99:a1:30:7a:0a:02:53:54:27:45:19:af:
                    23:7c:0c:05:b6:0a:49:14:ee:ea:83:3c:2d:90:1d:
                    93:f4:55:f7:c3:e3:11:38:2e:53:6a:4c:38:0a:19:
                    dd:87:92:b5:b0:c7:14:3d:8d:b2:ad:a5:f3:46:3c:
                    09:2f:cc:c6:b6:57:09:4d:67:48:42:a1:c3:45:5c:
                    d7:ca:be:98:cb:cc:e7:f0:f8:0f:6b:a0:ab:2d:34:
                    59:0b
                Exponent: 65537 (0x10001)
        X509v3 extensions:
            X509v3 Basic Constraints: 
                CA:FALSE
            X509v3 Subject Key Identifier: 
                F0:38:85:3D:13:A0:71:21:A6:19:FE:56:8D:E4:17:83:F3:37:5C:3E
            X509v3 Authority Key Identifier: 
                keyid:AF:C8:46:24:F6:E3:CC:C4:6F:F4:C1:C9:7D:7E:DD:E6:55:2B:07:89
                DirName:/CN=BalaSys D(HE)ate CA
                serial:0E:16:98:78:40:C1:3A:5A:36:CE:A5:F5:58:2B:86:CF:98:0C:58

            X509v3 Extended Key Usage: 
                TLS Web Server Authentication
            X509v3 Key Usage: 
                Digital Signature, Key Encipherment
            X509v3 Subject Alternative Name: 
                DNS:dheat.victim
    Signature Algorithm: sha256WithRSAEncryption
         3d:e1:10:99:25:32:50:4f:2a:5c:63:8c:f4:de:89:65:36:fe:
         cb:51:f2:77:18:66:5a:76:64:14:a3:e0:9a:69:ef:b1:b0:8e:
         68:71:3f:0d:c6:64:fa:44:e5:05:27:6a:5c:af:c9:16:be:5a:
         23:9c:8c:27:99:a4:7a:2a:eb:f9:b1:95:78:89:c3:ad:65:27:
         50:f5:b0:3e:72:b3:c3:ab:64:29:6a:05:15:4e:29:e7:c0:79:
         3f:e6:41:f9:47:6e:f0:87:10:5e:e2:e5:81:29:3c:9b:e7:07:
         95:f0:ca:80:ca:c0:9c:c3:69:82:37:66:3e:62:ae:86:03:59:
         89:d0:02:4e:d9:90:df:cd:ac:8d:9e:87:72:cd:f1:da:8e:cb:
         c6:b9:49:d0:cc:eb:48:36:58:38:a7:dd:c7:23:bc:c4:93:b1:
         5e:ad:2a:f0:23:33:a9:cb:22:ac:b4:a1:9d:70:b2:81:1a:e9:
         50:44:9f:73:5d:c1:41:dc:fe:a6:9b:87:3b:37:dc:f9:77:99:
         f9:ee:82:b3:f8:d1:6d:ed:11:47:e1:35:dc:42:1a:8f:c1:f8:
         e1:48:49:c4:b1:2c:8d:bd:4f:e4:b3:57:84:7a:a6:a7:91:b8:
         b8:51:ba:49:bb:52:63:34:f5:6c:b6:88:c5:2f:d8:e6:f4:94:
         7c:db:df:e7
-----BEGIN CERTIFICATE-----
MIIDgzCCAmugAwIBAgIRAOq9MX8klhJIulbMQwZzkyQwDQYJKoZIhvcNAQELBQAw
HjEcMBoGA1UEAwwTQmFsYVN5cyBEKEhFKWF0ZSBDQTAeFw0yMTExMjQxMzUwMjha
Fw0yNDAyMjcxMzUwMjhaMBcxFTATBgNVBAMMDGRoZWF0LnZpY3RpbTCCASIwDQYJ
KoZIhvcNAQEBBQADggEPADCCAQoCggEBAKpyt06iXIExUXCeurmS0WcbB/cugnta
f5I2gbbS8Wq7NWtZp+37BhuxqnK2BNwRIZqrhASwrKF/xTGhi3ljlNC5ArTdWepr
MhVPUDsqh3NtHV4QJPvavBvDfHLZ6I3+75mTaHLQjI6msgJ4dVkknuZ+cNAYYAGc
mfVhpjrqc2kxsmP9oJ5elUq8Km/rGKgdPM5cxcB+ydW/tQaRUk8sgJqNK9VLr4l/
maEwegoCU1QnRRmvI3wMBbYKSRTu6oM8LZAdk/RV98PjETguU2pMOAoZ3YeStbDH
FD2Nsq2l80Y8CS/MxrZXCU1nSEKhw0Vc18q+mMvM5/D4D2ugqy00WQsCAwEAAaOB
wjCBvzAJBgNVHRMEAjAAMB0GA1UdDgQWBBTwOIU9E6BxIaYZ/laN5BeD8zdcPjBY
BgNVHSMEUTBPgBSvyEYk9uPMxG/0wcl9ft3mVSsHiaEipCAwHjEcMBoGA1UEAwwT
QmFsYVN5cyBEKEhFKWF0ZSBDQYITDhaYeEDBOlo2zqX1WCuGz5gMWDATBgNVHSUE
DDAKBggrBgEFBQcDATALBgNVHQ8EBAMCBaAwFwYDVR0RBBAwDoIMZGhlYXQudmlj
dGltMA0GCSqGSIb3DQEBCwUAA4IBAQA94RCZJTJQTypcY4z03ollNv7LUfJ3GGZa
dmQUo+Caae+xsI5ocT8NxmT6ROUFJ2pcr8kWvlojnIwnmaR6Kuv5sZV4icOtZSdQ
9bA+crPDq2QpagUVTinnwHk/5kH5R27whxBe4uWBKTyb5weV8MqAysCcw2mCN2Y+
Yq6GA1mJ0AJO2ZDfzayNnodyzfHajsvGuUnQzOtINlg4p93HI7zEk7FerSrwIzOp
yyKstKGdcLKBGulQRJ9zXcFB3P6mm4c7N9z5d5n57oKz+NFt7RFH4TXcQhqPwfjh
SEnEsSyNvU/ks1eEeqankbi4UbpJu1JjNPVstojFL9jm9JR829/n
-----END CERTIFICATE-----
